; ModuleID = 'source-C-CXX/53/1700.cpp'
source_filename = "source-C-CXX/53/1700.cpp"
target datalayout = "e-m:e-p270:32:32-p271:32:32-p272:64:64-i64:64-f80:128-n8:16:32:64-S128"
target triple = "x86_64-pc-linux-gnu"

%"class.std::ios_base::Init" = type { i8 }
%"class.std::basic_istream" = type { i32 (...)**, i64, %"class.std::basic_ios" }
%"class.std::basic_ios" = type { %"class.std::ios_base", %"class.std::basic_ostream"*, i8, i8, %"class.std::basic_streambuf"*, %"class.std::ctype"*, %"class.std::num_put"*, %"class.std::num_get"* }
%"class.std::ios_base" = type { i32 (...)**, i64, i64, i32, i32, i32, %"struct.std::ios_base::_Callback_list"*, %"struct.std::ios_base::_Words", [8 x %"struct.std::ios_base::_Words"], i32, %"struct.std::ios_base::_Words"*, %"class.std::locale" }
%"struct.std::ios_base::_Callback_list" = type { %"struct.std::ios_base::_Callback_list"*, void (i32, %"class.std::ios_base"*, i32)*, i32, i32 }
%"struct.std::ios_base::_Words" = type { i8*, i64 }
%"class.std::locale" = type { %"class.std::locale::_Impl"* }
%"class.std::locale::_Impl" = type { i32, %"class.std::locale::facet"**, i64, %"class.std::locale::facet"**, i8** }
%"class.std::locale::facet" = type <{ i32 (...)**, i32, [4 x i8] }>
%"class.std::basic_ostream" = type { i32 (...)**, %"class.std::basic_ios" }
%"class.std::basic_streambuf" = type { i32 (...)**, i8*, i8*, i8*, i8*, i8*, i8*, %"class.std::locale" }
%"class.std::ctype" = type <{ %"class.std::locale::facet.base", [4 x i8], %struct.__locale_struct*, i8, [7 x i8], i32*, i32*, i16*, i8, [256 x i8], [256 x i8], i8, [6 x i8] }>
%"class.std::locale::facet.base" = type <{ i32 (...)**, i32 }>
%struct.__locale_struct = type { [13 x %struct.__locale_data*], i16*, i32*, i32*, [13 x i8*] }
%struct.__locale_data = type opaque
%"class.std::num_put" = type { %"class.std::locale::facet.base", [4 x i8] }
%"class.std::num_get" = type { %"class.std::locale::facet.base", [4 x i8] }

@_ZStL8__ioinit = internal global %"class.std::ios_base::Init" zeroinitializer, align 1
@__dso_handle = external hidden global i8
@i = dso_local local_unnamed_addr global i32 0, align 4
@n = dso_local global i32 0, align 4
@k = dso_local global i32 0, align 4
@_ZSt3cin = external global %"class.std::basic_istream", align 8
@_ZSt4cout = external global %"class.std::basic_ostream", align 8
@llvm.global_ctors = appending global [1 x { i32, void ()*, i8* }] [{ i32, void ()*, i8* } { i32 65535, void ()* @_GLOBAL__sub_I_1700.cpp, i8* null }]

declare void @_ZNSt8ios_base4InitC1Ev(%"class.std::ios_base::Init"* nonnull align 1 dereferenceable(1)) unnamed_addr #0

; Function Attrs: nounwind
declare void @_ZNSt8ios_base4InitD1Ev(%"class.std::ios_base::Init"* nonnull align 1 dereferenceable(1)) unnamed_addr #1

; Function Attrs: nofree nounwind
declare i32 @__cxa_atexit(void (i8*)*, i8*, i8*) local_unnamed_addr #2

; Function Attrs: mustprogress nofree nosync nounwind sspstrong uwtable
define dso_local i32 @_Z1fi(i32 %0) local_unnamed_addr #3 {
  %2 = load i32, i32* @n, align 4, !tbaa !5
  %3 = add nsw i32 %2, -1
  %4 = load i32, i32* @k, align 4
  %5 = load i32, i32* @i, align 4, !tbaa !5
  %6 = icmp slt i32 %5, %2
  br i1 %6, label %7, label %18

7:                                                ; preds = %1, %12
  %8 = phi i32 [ %13, %12 ], [ %5, %1 ]
  %9 = phi i32 [ %16, %12 ], [ %0, %1 ]
  %10 = srem i32 %9, %3
  %11 = icmp eq i32 %10, 0
  br i1 %11, label %12, label %18

12:                                               ; preds = %7
  %13 = add i32 %8, 1
  store i32 %13, i32* @i, align 4, !tbaa !5
  %14 = mul nsw i32 %2, %9
  %15 = sdiv i32 %14, %3
  %16 = add nsw i32 %4, %15
  %17 = icmp eq i32 %13, %2
  br i1 %17, label %18, label %7

18:                                               ; preds = %7, %12, %1
  %19 = phi i32 [ %0, %1 ], [ %16, %12 ], [ 0, %7 ]
  ret i32 %19
}

; Function Attrs: mustprogress norecurse sspstrong uwtable
define dso_local i32 @main() local_unnamed_addr #4 {
  %1 = tail call nonnull align 8 dereferenceable(16) %"class.std::basic_istream"* @_ZNSirsERi(%"class.std::basic_istream"* nonnull align 8 dereferenceable(16) @_ZSt3cin, i32* nonnull align 4 dereferenceable(4) @n)
  %2 = tail call nonnull align 8 dereferenceable(16) %"class.std::basic_istream"* @_ZNSirsERi(%"class.std::basic_istream"* nonnull align 8 dereferenceable(16) %1, i32* nonnull align 4 dereferenceable(4) @k)
  %3 = load i32, i32* @n, align 4, !tbaa !5
  %4 = load i32, i32* @k, align 4, !tbaa !5
  %5 = add nsw i32 %3, -1
  %6 = icmp sgt i32 %3, 1
  br i1 %6, label %7, label %27

7:                                                ; preds = %0, %23
  %8 = phi i32 [ %9, %23 ], [ 0, %0 ]
  %9 = add nuw nsw i32 %8, 1
  %10 = mul nsw i32 %3, %9
  %11 = add nsw i32 %10, %4
  br label %12

12:                                               ; preds = %7, %17
  %13 = phi i32 [ %18, %17 ], [ 1, %7 ]
  %14 = phi i32 [ %21, %17 ], [ %11, %7 ]
  %15 = srem i32 %14, %5
  %16 = icmp eq i32 %15, 0
  br i1 %16, label %17, label %23

17:                                               ; preds = %12
  %18 = add nuw nsw i32 %13, 1
  %19 = mul nsw i32 %14, %3
  %20 = sdiv i32 %19, %5
  %21 = add nsw i32 %20, %4
  %22 = icmp eq i32 %18, %3
  br i1 %22, label %23, label %12

23:                                               ; preds = %17, %12
  %24 = phi i32 [ %13, %12 ], [ %3, %17 ]
  %25 = phi i32 [ 0, %12 ], [ %21, %17 ]
  %26 = icmp eq i32 %25, 0
  br i1 %26, label %7, label %33, !llvm.loop !9

27:                                               ; preds = %0, %27
  %28 = phi i32 [ %29, %27 ], [ 0, %0 ]
  %29 = add nuw nsw i32 %28, 1
  %30 = mul nsw i32 %3, %29
  %31 = add nsw i32 %30, %4
  %32 = icmp eq i32 %31, 0
  br i1 %32, label %27, label %33, !llvm.loop !9

33:                                               ; preds = %27, %23
  %34 = phi i32 [ %24, %23 ], [ 1, %27 ]
  %35 = phi i32 [ %25, %23 ], [ %31, %27 ]
  store i32 %34, i32* @i, align 4, !tbaa !5
  %36 = tail call nonnull align 8 dereferenceable(8) %"class.std::basic_ostream"* @_ZNSolsEi(%"class.std::basic_ostream"* nonnull align 8 dereferenceable(8) @_ZSt4cout, i32 %35)
  %37 = bitcast %"class.std::basic_ostream"* %36 to i8**
  %38 = load i8*, i8** %37, align 8, !tbaa !11
  %39 = getelementptr i8, i8* %38, i64 -24
  %40 = bitcast i8* %39 to i64*
  %41 = load i64, i64* %40, align 8
  %42 = bitcast %"class.std::basic_ostream"* %36 to i8*
  %43 = add nsw i64 %41, 240
  %44 = getelementptr inbounds i8, i8* %42, i64 %43
  %45 = bitcast i8* %44 to %"class.std::ctype"**
  %46 = load %"class.std::ctype"*, %"class.std::ctype"** %45, align 8, !tbaa !13
  %47 = icmp eq %"class.std::ctype"* %46, null
  br i1 %47, label %48, label %49

48:                                               ; preds = %33
  tail call void @_ZSt16__throw_bad_castv() #7
  unreachable

49:                                               ; preds = %33
  %50 = getelementptr inbounds %"class.std::ctype", %"class.std::ctype"* %46, i64 0, i32 8
  %51 = load i8, i8* %50, align 8, !tbaa !17
  %52 = icmp eq i8 %51, 0
  br i1 %52, label %56, label %53

53:                                               ; preds = %49
  %54 = getelementptr inbounds %"class.std::ctype", %"class.std::ctype"* %46, i64 0, i32 9, i64 10
  %55 = load i8, i8* %54, align 1, !tbaa !19
  br label %62

56:                                               ; preds = %49
  tail call void @_ZNKSt5ctypeIcE13_M_widen_initEv(%"class.std::ctype"* nonnull align 8 dereferenceable(570) %46)
  %57 = bitcast %"class.std::ctype"* %46 to i8 (%"class.std::ctype"*, i8)***
  %58 = load i8 (%"class.std::ctype"*, i8)**, i8 (%"class.std::ctype"*, i8)*** %57, align 8, !tbaa !11
  %59 = getelementptr inbounds i8 (%"class.std::ctype"*, i8)*, i8 (%"class.std::ctype"*, i8)** %58, i64 6
  %60 = load i8 (%"class.std::ctype"*, i8)*, i8 (%"class.std::ctype"*, i8)** %59, align 8
  %61 = tail call signext i8 %60(%"class.std::ctype"* nonnull align 8 dereferenceable(570) %46, i8 signext 10)
  br label %62

62:                                               ; preds = %53, %56
  %63 = phi i8 [ %55, %53 ], [ %61, %56 ]
  %64 = tail call nonnull align 8 dereferenceable(8) %"class.std::basic_ostream"* @_ZNSo3putEc(%"class.std::basic_ostream"* nonnull align 8 dereferenceable(8) %36, i8 signext %63)
  %65 = tail call nonnull align 8 dereferenceable(8) %"class.std::basic_ostream"* @_ZNSo5flushEv(%"class.std::basic_ostream"* nonnull align 8 dereferenceable(8) %64)
  ret i32 0
}

declare nonnull align 8 dereferenceable(16) %"class.std::basic_istream"* @_ZNSirsERi(%"class.std::basic_istream"* nonnull align 8 dereferenceable(16), i32* nonnull align 4 dereferenceable(4)) local_unnamed_addr #0

declare nonnull align 8 dereferenceable(8) %"class.std::basic_ostream"* @_ZNSolsEi(%"class.std::basic_ostream"* nonnull align 8 dereferenceable(8), i32) local_unnamed_addr #0

declare nonnull align 8 dereferenceable(8) %"class.std::basic_ostream"* @_ZNSo3putEc(%"class.std::basic_ostream"* nonnull align 8 dereferenceable(8), i8 signext) local_unnamed_addr #0

declare nonnull align 8 dereferenceable(8) %"class.std::basic_ostream"* @_ZNSo5flushEv(%"class.std::basic_ostream"* nonnull align 8 dereferenceable(8)) local_unnamed_addr #0

; Function Attrs: noreturn
declare void @_ZSt16__throw_bad_castv() local_unnamed_addr #5

declare void @_ZNKSt5ctypeIcE13_M_widen_initEv(%"class.std::ctype"* nonnull align 8 dereferenceable(570)) local_unnamed_addr #0

; Function Attrs: sspstrong uwtable
define internal void @_GLOBAL__sub_I_1700.cpp() #6 section ".text.startup" {
  tail call void @_ZNSt8ios_base4InitC1Ev(%"class.std::ios_base::Init"* nonnull align 1 dereferenceable(1) @_ZStL8__ioinit)
  %1 = tail call i32 @__cxa_atexit(void (i8*)* bitcast (void (%"class.std::ios_base::Init"*)* @_ZNSt8ios_base4InitD1Ev to void (i8*)*), i8* getelementptr inbounds (%"class.std::ios_base::Init", %"class.std::ios_base::Init"* @_ZStL8__ioinit, i64 0, i32 0), i8* nonnull @__dso_handle) #8
  ret void
}


!llvm.module.flags = !{!0, !1, !2, !3}
!llvm.ident = !{!4}

!0 = !{i32 1, !"wchar_size", i32 4}
!1 = !{i32 7, !"PIC Level", i32 2}
!2 = !{i32 7, !"PIE Level", i32 2}
!3 = !{i32 7, !"uwtable", i32 1}
!4 = !{!"clang version 13.0.0"}
!5 = !{!6, !6, i64 0}
!6 = !{!"int", !7, i64 0}
!7 = !{!"omnipotent char", !8, i64 0}
!8 = !{!"Simple C++ TBAA"}
!9 = distinct !{!9, !10}
!10 = !{!"llvm.loop.mustprogress"}
!11 = !{!12, !12, i64 0}
!12 = !{!"vtable pointer", !8, i64 0}
!13 = !{!14, !15, i64 240}
!14 = !{!"_ZTSSt9basic_iosIcSt11char_traitsIcEE", !15, i64 216, !7, i64 224, !16, i64 225, !15, i64 232, !15, i64 240, !15, i64 248, !15, i64 256}
!15 = !{!"any pointer", !7, i64 0}
!16 = !{!"bool", !7, i64 0}
!17 = !{!18, !7, i64 56}
!18 = !{!"_ZTSSt5ctypeIcE", !15, i64 16, !16, i64 24, !15, i64 32, !15, i64 40, !15, i64 48, !7, i64 56, !7, i64 57, !7, i64 313, !7, i64 569}
!19 = !{!7, !7, i64 0}
